target datalayout = "e-m:e-p270:32:32-p271:32:32-p272:64:64-i64:64-i128:128-f80:128-n8:16:32:64-S128"
target triple = "x86_64-pc-linux-gnu"

@_ZTVN7Iex_3_48ErrnoExcE = unnamed_addr constant { [5 x ptr] } { [5 x ptr] [ptr null, ptr @_ZTIN7Iex_3_48ErrnoExcE, ptr @_ZN7Iex_3_48ErrnoExcD1Ev, ptr @_ZN7Iex_3_48ErrnoExcD0Ev, ptr @_ZNK7Iex_3_47BaseExc4whatEv] }, align 8
@_ZTVN7Iex_3_410EisconnExcE = unnamed_addr constant { [5 x ptr] } { [5 x ptr] [ptr null, ptr @_ZTIN7Iex_3_410EisconnExcE, ptr @_ZN7Iex_3_410EisconnExcD1Ev, ptr @_ZN7Iex_3_410EisconnExcD0Ev, ptr @_ZNK7Iex_3_47BaseExc4whatEv] }, align 8

; Function Attrs: mustprogress uwtable
define void @_ZN7Iex_3_48ErrnoExcC2ERKS0_(ptr noundef nonnull align 8 dereferenceable(72) %0, ptr noundef nonnull align 8 dereferenceable(72) %1) unnamed_addr #1 align 2 {
  %3 = alloca ptr, align 8
  %4 = alloca ptr, align 8
  store ptr %0, ptr %3, align 8, !tbaa !34
  store ptr %1, ptr %4, align 8, !tbaa !34
  %5 = load ptr, ptr %3, align 8
  %6 = load ptr, ptr %4, align 8, !tbaa !34
  call void @_ZN7Iex_3_47BaseExcC2ERKS0_(ptr noundef nonnull align 8 dereferenceable(72) %5, ptr noundef nonnull align 8 dereferenceable(72) %6)
  store ptr getelementptr inbounds inrange(-16, 24) ({ [5 x ptr] }, ptr @_ZTVN7Iex_3_48ErrnoExcE, i32 0, i32 0, i32 2), ptr %5, align 8, !tbaa !11
  ret void
}

; Function Attrs: mustprogress nounwind uwtable
define void @_ZN7Iex_3_410EisconnExcC2EOS0_(ptr noundef nonnull align 8 dereferenceable(72) %0, ptr noundef nonnull align 8 dereferenceable(72) %1) unnamed_addr #0 align 2 personality ptr @__gxx_personality_v0 {
  %3 = alloca ptr, align 8
  %4 = alloca ptr, align 8
  store ptr %0, ptr %3, align 8, !tbaa !248
  store ptr %1, ptr %4, align 8, !tbaa !248
  %5 = load ptr, ptr %3, align 8
  %6 = load ptr, ptr %4, align 8, !tbaa !248
  invoke void @_ZN7Iex_3_48ErrnoExcC2ERKS0_(ptr noundef nonnull align 8 dereferenceable(72) %5, ptr noundef nonnull align 8 dereferenceable(72) %6)
          to label %7 unwind label %8

7:                                                ; preds = %2
  store ptr getelementptr inbounds inrange(-16, 24) ({ [5 x ptr] }, ptr @_ZTVN7Iex_3_410EisconnExcE, i32 0, i32 0, i32 2), ptr %5, align 8, !tbaa !11
  ret void

8:                                                ; preds = %2
  %9 = landingpad { ptr, i32 }
          catch ptr null
  %10 = extractvalue { ptr, i32 } %9, 0
  call void @__clang_call_terminate(ptr %10) #16
  unreachable
}